MPLINK 5.08, LINKER
Linker Map File - Created Thu Sep 24 19:32:15 2020

                                 Section Info
                  Section       Type    Address   Location Size(Bytes)
                ---------  ---------  ---------  ---------  ---------
                 RES_VECT       code   0x000000    program   0x000002
                   .cinit    romdata   0x000001    program   0x000004
                 ISR_VECT       code   0x000004    program   0x00001c
                MAIN_PROG       code   0x000012    program   0x000490
.config_2007_BUILD/DEFAULT/PRODUCTION/PRUEBA        code   0x002007    program   0x000002
.config_2008_BUILD/DEFAULT/PRODUCTION/PRUEBA        code   0x002008    program   0x000002
                  GPR_VAR      udata   0x000020       data   0x00002d



                              Program Memory Usage 
                               Start         End      
                           ---------   ---------      
                            0x000000    0x000002      
                            0x000004    0x000259      
                            0x002007    0x002008      
            603 out of 8455 program addresses used, program memory utilization is 7%



                              Symbols - Sorted by Name
                     Name    Address   Location    Storage File                     
                ---------  ---------  ---------  --------- ---------                
                ALARMA_ON   0x00018b    program     static D:\UVG\Tercer año\Segundo semestre\Progra de micros\MPLAB\prueba 2 p1.X\prueba 2p1.asm
        AUMENTAR_DIA_ES_2   0x00005a    program     static D:\UVG\Tercer año\Segundo semestre\Progra de micros\MPLAB\prueba 2 p1.X\prueba 2p1.asm
    AUMENTAR_HORA_ALARM_3   0x00024f    program     static D:\UVG\Tercer año\Segundo semestre\Progra de micros\MPLAB\prueba 2 p1.X\prueba 2p1.asm
       AUMENTAR_HORA_ES_1   0x000039    program     static D:\UVG\Tercer año\Segundo semestre\Progra de micros\MPLAB\prueba 2 p1.X\prueba 2p1.asm
        AUMENTAR_MES_ES_2   0x000060    program     static D:\UVG\Tercer año\Segundo semestre\Progra de micros\MPLAB\prueba 2 p1.X\prueba 2p1.asm
     AUMENTAR_MIN_ALARM_3   0x000249    program     static D:\UVG\Tercer año\Segundo semestre\Progra de micros\MPLAB\prueba 2 p1.X\prueba 2p1.asm
        AUMENTAR_MIN_ES_1   0x000033    program     static D:\UVG\Tercer año\Segundo semestre\Progra de micros\MPLAB\prueba 2 p1.X\prueba 2p1.asm
    CONFIG_INTERRUPCIONES   0x0000e8    program     static D:\UVG\Tercer año\Segundo semestre\Progra de micros\MPLAB\prueba 2 p1.X\prueba 2p1.asm
                CONFIG_IO   0x000082    program     static D:\UVG\Tercer año\Segundo semestre\Progra de micros\MPLAB\prueba 2 p1.X\prueba 2p1.asm
            CONFIG_TIMER0   0x0000c0    program     static D:\UVG\Tercer año\Segundo semestre\Progra de micros\MPLAB\prueba 2 p1.X\prueba 2p1.asm
            CONFIG_TIMER1   0x0000cd    program     static D:\UVG\Tercer año\Segundo semestre\Progra de micros\MPLAB\prueba 2 p1.X\prueba 2p1.asm
            CONFIG_TIMER2   0x0000db    program     static D:\UVG\Tercer año\Segundo semestre\Progra de micros\MPLAB\prueba 2 p1.X\prueba 2p1.asm
             CONT1SEGUNDO   0x000196    program     static D:\UVG\Tercer año\Segundo semestre\Progra de micros\MPLAB\prueba 2 p1.X\prueba 2p1.asm
                CONTMIN_U   0x0001a1    program     static D:\UVG\Tercer año\Segundo semestre\Progra de micros\MPLAB\prueba 2 p1.X\prueba 2p1.asm
          CONTMIN_U_ALARM   0x000208    program     static D:\UVG\Tercer año\Segundo semestre\Progra de micros\MPLAB\prueba 2 p1.X\prueba 2p1.asm
                CONT_DIAS   0x0001c0    program     static D:\UVG\Tercer año\Segundo semestre\Progra de micros\MPLAB\prueba 2 p1.X\prueba 2p1.asm
               CONT_HORAS   0x0001b1    program     static D:\UVG\Tercer año\Segundo semestre\Progra de micros\MPLAB\prueba 2 p1.X\prueba 2p1.asm
         CONT_HORAS_ALARM   0x000216    program     static D:\UVG\Tercer año\Segundo semestre\Progra de micros\MPLAB\prueba 2 p1.X\prueba 2p1.asm
               CONT_MESES   0x0001d0    program     static D:\UVG\Tercer año\Segundo semestre\Progra de micros\MPLAB\prueba 2 p1.X\prueba 2p1.asm
                 DELAY_R1   0x000255    program     static D:\UVG\Tercer año\Segundo semestre\Progra de micros\MPLAB\prueba 2 p1.X\prueba 2p1.asm
                   DISP_1   0x00012c    program     static D:\UVG\Tercer año\Segundo semestre\Progra de micros\MPLAB\prueba 2 p1.X\prueba 2p1.asm
                   DISP_2   0x000134    program     static D:\UVG\Tercer año\Segundo semestre\Progra de micros\MPLAB\prueba 2 p1.X\prueba 2p1.asm
                   DISP_3   0x00013c    program     static D:\UVG\Tercer año\Segundo semestre\Progra de micros\MPLAB\prueba 2 p1.X\prueba 2p1.asm
                   DISP_4   0x000144    program     static D:\UVG\Tercer año\Segundo semestre\Progra de micros\MPLAB\prueba 2 p1.X\prueba 2p1.asm
                FECHA_OFF   0x000071    program     static D:\UVG\Tercer año\Segundo semestre\Progra de micros\MPLAB\prueba 2 p1.X\prueba 2p1.asm
                 FECHA_ON   0x000066    program     static D:\UVG\Tercer año\Segundo semestre\Progra de micros\MPLAB\prueba 2 p1.X\prueba 2p1.asm
                    FINT1   0x00015c    program     static D:\UVG\Tercer año\Segundo semestre\Progra de micros\MPLAB\prueba 2 p1.X\prueba 2p1.asm
        FIN_BANDERA_FECHA   0x00007b    program     static D:\UVG\Tercer año\Segundo semestre\Progra de micros\MPLAB\prueba 2 p1.X\prueba 2p1.asm
                 FIN_TMR2   0x00016b    program     static D:\UVG\Tercer año\Segundo semestre\Progra de micros\MPLAB\prueba 2 p1.X\prueba 2p1.asm
               FUE_TIMER0   0x000120    program     static D:\UVG\Tercer año\Segundo semestre\Progra de micros\MPLAB\prueba 2 p1.X\prueba 2p1.asm
               FUE_TIMER1   0x00014c    program     static D:\UVG\Tercer año\Segundo semestre\Progra de micros\MPLAB\prueba 2 p1.X\prueba 2p1.asm
               FUE_TIMER2   0x00015d    program     static D:\UVG\Tercer año\Segundo semestre\Progra de micros\MPLAB\prueba 2 p1.X\prueba 2p1.asm
                      ISR   0x000007    program     static D:\UVG\Tercer año\Segundo semestre\Progra de micros\MPLAB\prueba 2 p1.X\prueba 2p1.asm
                  LIMPIAR   0x0001eb    program     static D:\UVG\Tercer año\Segundo semestre\Progra de micros\MPLAB\prueba 2 p1.X\prueba 2p1.asm
            LIMPIAR_ALARM   0x00022a    program     static D:\UVG\Tercer año\Segundo semestre\Progra de micros\MPLAB\prueba 2 p1.X\prueba 2p1.asm
              LIMPIAR_DIA   0x0001ff    program     static D:\UVG\Tercer año\Segundo semestre\Progra de micros\MPLAB\prueba 2 p1.X\prueba 2p1.asm
              LIMPIAR_MES   0x0001f5    program     static D:\UVG\Tercer año\Segundo semestre\Progra de micros\MPLAB\prueba 2 p1.X\prueba 2p1.asm
                     LOOP   0x000017    program     static D:\UVG\Tercer año\Segundo semestre\Progra de micros\MPLAB\prueba 2 p1.X\prueba 2p1.asm
         MODIFICAR_ALARMA   0x000230    program     static D:\UVG\Tercer año\Segundo semestre\Progra de micros\MPLAB\prueba 2 p1.X\prueba 2p1.asm
    MODIFICAR_ALARMA_INIT   0x000235    program     static D:\UVG\Tercer año\Segundo semestre\Progra de micros\MPLAB\prueba 2 p1.X\prueba 2p1.asm
          MODIFICAR_FECHA   0x00003f    program     static D:\UVG\Tercer año\Segundo semestre\Progra de micros\MPLAB\prueba 2 p1.X\prueba 2p1.asm
     MODIFICAR_FECHA_INIT   0x000045    program     static D:\UVG\Tercer año\Segundo semestre\Progra de micros\MPLAB\prueba 2 p1.X\prueba 2p1.asm
           MODIFICAR_HORA   0x00001a    program     static D:\UVG\Tercer año\Segundo semestre\Progra de micros\MPLAB\prueba 2 p1.X\prueba 2p1.asm
      MODIFICAR_HORA_INIT   0x00001f    program     static D:\UVG\Tercer año\Segundo semestre\Progra de micros\MPLAB\prueba 2 p1.X\prueba 2p1.asm
                  OFF_LED   0x000188    program     static D:\UVG\Tercer año\Segundo semestre\Progra de micros\MPLAB\prueba 2 p1.X\prueba 2p1.asm
                   ON_LED   0x000185    program     static D:\UVG\Tercer año\Segundo semestre\Progra de micros\MPLAB\prueba 2 p1.X\prueba 2p1.asm
                    PARAR   0x0001e1    program     static D:\UVG\Tercer año\Segundo semestre\Progra de micros\MPLAB\prueba 2 p1.X\prueba 2p1.asm
              PARAR_ALARM   0x000225    program     static D:\UVG\Tercer año\Segundo semestre\Progra de micros\MPLAB\prueba 2 p1.X\prueba 2p1.asm
                PARAR_DIA   0x0001db    program     static D:\UVG\Tercer año\Segundo semestre\Progra de micros\MPLAB\prueba 2 p1.X\prueba 2p1.asm
                PARAR_MES   0x0001e6    program     static D:\UVG\Tercer año\Segundo semestre\Progra de micros\MPLAB\prueba 2 p1.X\prueba 2p1.asm
                      POP   0x00000d    program     static D:\UVG\Tercer año\Segundo semestre\Progra de micros\MPLAB\prueba 2 p1.X\prueba 2p1.asm
                     PUSH   0x000004    program     static D:\UVG\Tercer año\Segundo semestre\Progra de micros\MPLAB\prueba 2 p1.X\prueba 2p1.asm
                    SETUP   0x000012    program     static D:\UVG\Tercer año\Segundo semestre\Progra de micros\MPLAB\prueba 2 p1.X\prueba 2p1.asm
               TABLA_7SEG   0x0000f7    program     static D:\UVG\Tercer año\Segundo semestre\Progra de micros\MPLAB\prueba 2 p1.X\prueba 2p1.asm
        TABLA_DIA_DEC_MAX   0x000112    program     static D:\UVG\Tercer año\Segundo semestre\Progra de micros\MPLAB\prueba 2 p1.X\prueba 2p1.asm
        TABLA_DIA_UNI_MAX   0x000104    program     static D:\UVG\Tercer año\Segundo semestre\Progra de micros\MPLAB\prueba 2 p1.X\prueba 2p1.asm
      VERIFICAR_ALARMA_T2   0x000168    program     static D:\UVG\Tercer año\Segundo semestre\Progra de micros\MPLAB\prueba 2 p1.X\prueba 2p1.asm
         VER_HORA_D_ALARM   0x00016c    program     static D:\UVG\Tercer año\Segundo semestre\Progra de micros\MPLAB\prueba 2 p1.X\prueba 2p1.asm
         VER_HORA_U_ALARM   0x000172    program     static D:\UVG\Tercer año\Segundo semestre\Progra de micros\MPLAB\prueba 2 p1.X\prueba 2p1.asm
          VER_MIN_D_ALARM   0x000178    program     static D:\UVG\Tercer año\Segundo semestre\Progra de micros\MPLAB\prueba 2 p1.X\prueba 2p1.asm
          VER_MIN_U_ALARM   0x00017e    program     static D:\UVG\Tercer año\Segundo semestre\Progra de micros\MPLAB\prueba 2 p1.X\prueba 2p1.asm
          _MAIN_PROG_000A   0x00001c    program     static D:\UVG\Tercer año\Segundo semestre\Progra de micros\MPLAB\prueba 2 p1.X\prueba 2p1.asm
          _MAIN_PROG_001D   0x00002f    program     static D:\UVG\Tercer año\Segundo semestre\Progra de micros\MPLAB\prueba 2 p1.X\prueba 2p1.asm
          _MAIN_PROG_0023   0x000035    program     static D:\UVG\Tercer año\Segundo semestre\Progra de micros\MPLAB\prueba 2 p1.X\prueba 2p1.asm
          _MAIN_PROG_0029   0x00003b    program     static D:\UVG\Tercer año\Segundo semestre\Progra de micros\MPLAB\prueba 2 p1.X\prueba 2p1.asm
          _MAIN_PROG_002F   0x000041    program     static D:\UVG\Tercer año\Segundo semestre\Progra de micros\MPLAB\prueba 2 p1.X\prueba 2p1.asm
          _MAIN_PROG_0043   0x000055    program     static D:\UVG\Tercer año\Segundo semestre\Progra de micros\MPLAB\prueba 2 p1.X\prueba 2p1.asm
          _MAIN_PROG_004A   0x00005c    program     static D:\UVG\Tercer año\Segundo semestre\Progra de micros\MPLAB\prueba 2 p1.X\prueba 2p1.asm
          _MAIN_PROG_0050   0x000062    program     static D:\UVG\Tercer año\Segundo semestre\Progra de micros\MPLAB\prueba 2 p1.X\prueba 2p1.asm
          _MAIN_PROG_0220   0x000232    program     static D:\UVG\Tercer año\Segundo semestre\Progra de micros\MPLAB\prueba 2 p1.X\prueba 2p1.asm
          _MAIN_PROG_0233   0x000245    program     static D:\UVG\Tercer año\Segundo semestre\Progra de micros\MPLAB\prueba 2 p1.X\prueba 2p1.asm
          _MAIN_PROG_0239   0x00024b    program     static D:\UVG\Tercer año\Segundo semestre\Progra de micros\MPLAB\prueba 2 p1.X\prueba 2p1.asm
          _MAIN_PROG_023F   0x000251    program     static D:\UVG\Tercer año\Segundo semestre\Progra de micros\MPLAB\prueba 2 p1.X\prueba 2p1.asm
          _MAIN_PROG_0246   0x000258    program     static D:\UVG\Tercer año\Segundo semestre\Progra de micros\MPLAB\prueba 2 p1.X\prueba 2p1.asm
            ALARMA_ON_BAN   0x000021       data     static D:\UVG\Tercer año\Segundo semestre\Progra de micros\MPLAB\prueba 2 p1.X\prueba 2p1.asm
                      AÑO   0x000020       data     static D:\UVG\Tercer año\Segundo semestre\Progra de micros\MPLAB\prueba 2 p1.X\prueba 2p1.asm
                BANDERA_A   0x000022       data     static D:\UVG\Tercer año\Segundo semestre\Progra de micros\MPLAB\prueba 2 p1.X\prueba 2p1.asm
                BANDERA_B   0x000023       data     static D:\UVG\Tercer año\Segundo semestre\Progra de micros\MPLAB\prueba 2 p1.X\prueba 2p1.asm
                BANDERA_C   0x000024       data     static D:\UVG\Tercer año\Segundo semestre\Progra de micros\MPLAB\prueba 2 p1.X\prueba 2p1.asm
                BANDERA_D   0x000025       data     static D:\UVG\Tercer año\Segundo semestre\Progra de micros\MPLAB\prueba 2 p1.X\prueba 2p1.asm
             BANDERA_ES_1   0x000026       data     static D:\UVG\Tercer año\Segundo semestre\Progra de micros\MPLAB\prueba 2 p1.X\prueba 2p1.asm
             BANDERA_ES_2   0x000027       data     static D:\UVG\Tercer año\Segundo semestre\Progra de micros\MPLAB\prueba 2 p1.X\prueba 2p1.asm
             BANDERA_ES_3   0x000028       data     static D:\UVG\Tercer año\Segundo semestre\Progra de micros\MPLAB\prueba 2 p1.X\prueba 2p1.asm
            BANDERA_FECHA   0x000029       data     static D:\UVG\Tercer año\Segundo semestre\Progra de micros\MPLAB\prueba 2 p1.X\prueba 2p1.asm
                    CONT1   0x00002d       data     static D:\UVG\Tercer año\Segundo semestre\Progra de micros\MPLAB\prueba 2 p1.X\prueba 2p1.asm
                    CONT2   0x00002e       data     static D:\UVG\Tercer año\Segundo semestre\Progra de micros\MPLAB\prueba 2 p1.X\prueba 2p1.asm
                  CONT_1S   0x00002a       data     static D:\UVG\Tercer año\Segundo semestre\Progra de micros\MPLAB\prueba 2 p1.X\prueba 2p1.asm
               CONT_500MS   0x00002c       data     static D:\UVG\Tercer año\Segundo semestre\Progra de micros\MPLAB\prueba 2 p1.X\prueba 2p1.asm
                 CONT_60S   0x00002b       data     static D:\UVG\Tercer año\Segundo semestre\Progra de micros\MPLAB\prueba 2 p1.X\prueba 2p1.asm
              CONT_ALARMA   0x00002f       data     static D:\UVG\Tercer año\Segundo semestre\Progra de micros\MPLAB\prueba 2 p1.X\prueba 2p1.asm
                  DELAY_1   0x000030       data     static D:\UVG\Tercer año\Segundo semestre\Progra de micros\MPLAB\prueba 2 p1.X\prueba 2p1.asm
                  DIA_DEC   0x000032       data     static D:\UVG\Tercer año\Segundo semestre\Progra de micros\MPLAB\prueba 2 p1.X\prueba 2p1.asm
                DIA_D_MAX   0x000038       data     static D:\UVG\Tercer año\Segundo semestre\Progra de micros\MPLAB\prueba 2 p1.X\prueba 2p1.asm
                  DIA_UNI   0x000031       data     static D:\UVG\Tercer año\Segundo semestre\Progra de micros\MPLAB\prueba 2 p1.X\prueba 2p1.asm
                DIA_U_MAX   0x000037       data     static D:\UVG\Tercer año\Segundo semestre\Progra de micros\MPLAB\prueba 2 p1.X\prueba 2p1.asm
                DISPLAY_1   0x000033       data     static D:\UVG\Tercer año\Segundo semestre\Progra de micros\MPLAB\prueba 2 p1.X\prueba 2p1.asm
                DISPLAY_2   0x000034       data     static D:\UVG\Tercer año\Segundo semestre\Progra de micros\MPLAB\prueba 2 p1.X\prueba 2p1.asm
                DISPLAY_3   0x000035       data     static D:\UVG\Tercer año\Segundo semestre\Progra de micros\MPLAB\prueba 2 p1.X\prueba 2p1.asm
                DISPLAY_4   0x000036       data     static D:\UVG\Tercer año\Segundo semestre\Progra de micros\MPLAB\prueba 2 p1.X\prueba 2p1.asm
                   HORA24   0x00003b       data     static D:\UVG\Tercer año\Segundo semestre\Progra de micros\MPLAB\prueba 2 p1.X\prueba 2p1.asm
                   HORA_D   0x00003a       data     static D:\UVG\Tercer año\Segundo semestre\Progra de micros\MPLAB\prueba 2 p1.X\prueba 2p1.asm
             HORA_D_ALARM   0x00003d       data     static D:\UVG\Tercer año\Segundo semestre\Progra de micros\MPLAB\prueba 2 p1.X\prueba 2p1.asm
                   HORA_U   0x000039       data     static D:\UVG\Tercer año\Segundo semestre\Progra de micros\MPLAB\prueba 2 p1.X\prueba 2p1.asm
             HORA_U_ALARM   0x00003c       data     static D:\UVG\Tercer año\Segundo semestre\Progra de micros\MPLAB\prueba 2 p1.X\prueba 2p1.asm
                INTER_LED   0x00003e       data     static D:\UVG\Tercer año\Segundo semestre\Progra de micros\MPLAB\prueba 2 p1.X\prueba 2p1.asm
                      MES   0x000041       data     static D:\UVG\Tercer año\Segundo semestre\Progra de micros\MPLAB\prueba 2 p1.X\prueba 2p1.asm
                    MES12   0x000044       data     static D:\UVG\Tercer año\Segundo semestre\Progra de micros\MPLAB\prueba 2 p1.X\prueba 2p1.asm
                    MES_D   0x000043       data     static D:\UVG\Tercer año\Segundo semestre\Progra de micros\MPLAB\prueba 2 p1.X\prueba 2p1.asm
                    MES_U   0x000042       data     static D:\UVG\Tercer año\Segundo semestre\Progra de micros\MPLAB\prueba 2 p1.X\prueba 2p1.asm
                    MIN_D   0x000040       data     static D:\UVG\Tercer año\Segundo semestre\Progra de micros\MPLAB\prueba 2 p1.X\prueba 2p1.asm
              MIN_D_ALARM   0x000046       data     static D:\UVG\Tercer año\Segundo semestre\Progra de micros\MPLAB\prueba 2 p1.X\prueba 2p1.asm
                    MIN_U   0x00003f       data     static D:\UVG\Tercer año\Segundo semestre\Progra de micros\MPLAB\prueba 2 p1.X\prueba 2p1.asm
              MIN_U_ALARM   0x000045       data     static D:\UVG\Tercer año\Segundo semestre\Progra de micros\MPLAB\prueba 2 p1.X\prueba 2p1.asm
              STATUS_TEMP   0x00004b       data     static D:\UVG\Tercer año\Segundo semestre\Progra de micros\MPLAB\prueba 2 p1.X\prueba 2p1.asm
                     STOP   0x000047       data     static D:\UVG\Tercer año\Segundo semestre\Progra de micros\MPLAB\prueba 2 p1.X\prueba 2p1.asm
               STOP_ALARM   0x00004a       data     static D:\UVG\Tercer año\Segundo semestre\Progra de micros\MPLAB\prueba 2 p1.X\prueba 2p1.asm
                 STOP_DIA   0x000048       data     static D:\UVG\Tercer año\Segundo semestre\Progra de micros\MPLAB\prueba 2 p1.X\prueba 2p1.asm
                 STOP_MES   0x000049       data     static D:\UVG\Tercer año\Segundo semestre\Progra de micros\MPLAB\prueba 2 p1.X\prueba 2p1.asm
                   W_TEMP   0x00004c       data     static D:\UVG\Tercer año\Segundo semestre\Progra de micros\MPLAB\prueba 2 p1.X\prueba 2p1.asm



                              Symbols - Sorted by Address
                     Name    Address   Location    Storage File                     
                ---------  ---------  ---------  --------- ---------                
                     PUSH   0x000004    program     static D:\UVG\Tercer año\Segundo semestre\Progra de micros\MPLAB\prueba 2 p1.X\prueba 2p1.asm
                      ISR   0x000007    program     static D:\UVG\Tercer año\Segundo semestre\Progra de micros\MPLAB\prueba 2 p1.X\prueba 2p1.asm
                      POP   0x00000d    program     static D:\UVG\Tercer año\Segundo semestre\Progra de micros\MPLAB\prueba 2 p1.X\prueba 2p1.asm
                    SETUP   0x000012    program     static D:\UVG\Tercer año\Segundo semestre\Progra de micros\MPLAB\prueba 2 p1.X\prueba 2p1.asm
                     LOOP   0x000017    program     static D:\UVG\Tercer año\Segundo semestre\Progra de micros\MPLAB\prueba 2 p1.X\prueba 2p1.asm
           MODIFICAR_HORA   0x00001a    program     static D:\UVG\Tercer año\Segundo semestre\Progra de micros\MPLAB\prueba 2 p1.X\prueba 2p1.asm
          _MAIN_PROG_000A   0x00001c    program     static D:\UVG\Tercer año\Segundo semestre\Progra de micros\MPLAB\prueba 2 p1.X\prueba 2p1.asm
      MODIFICAR_HORA_INIT   0x00001f    program     static D:\UVG\Tercer año\Segundo semestre\Progra de micros\MPLAB\prueba 2 p1.X\prueba 2p1.asm
          _MAIN_PROG_001D   0x00002f    program     static D:\UVG\Tercer año\Segundo semestre\Progra de micros\MPLAB\prueba 2 p1.X\prueba 2p1.asm
        AUMENTAR_MIN_ES_1   0x000033    program     static D:\UVG\Tercer año\Segundo semestre\Progra de micros\MPLAB\prueba 2 p1.X\prueba 2p1.asm
          _MAIN_PROG_0023   0x000035    program     static D:\UVG\Tercer año\Segundo semestre\Progra de micros\MPLAB\prueba 2 p1.X\prueba 2p1.asm
       AUMENTAR_HORA_ES_1   0x000039    program     static D:\UVG\Tercer año\Segundo semestre\Progra de micros\MPLAB\prueba 2 p1.X\prueba 2p1.asm
          _MAIN_PROG_0029   0x00003b    program     static D:\UVG\Tercer año\Segundo semestre\Progra de micros\MPLAB\prueba 2 p1.X\prueba 2p1.asm
          MODIFICAR_FECHA   0x00003f    program     static D:\UVG\Tercer año\Segundo semestre\Progra de micros\MPLAB\prueba 2 p1.X\prueba 2p1.asm
          _MAIN_PROG_002F   0x000041    program     static D:\UVG\Tercer año\Segundo semestre\Progra de micros\MPLAB\prueba 2 p1.X\prueba 2p1.asm
     MODIFICAR_FECHA_INIT   0x000045    program     static D:\UVG\Tercer año\Segundo semestre\Progra de micros\MPLAB\prueba 2 p1.X\prueba 2p1.asm
          _MAIN_PROG_0043   0x000055    program     static D:\UVG\Tercer año\Segundo semestre\Progra de micros\MPLAB\prueba 2 p1.X\prueba 2p1.asm
        AUMENTAR_DIA_ES_2   0x00005a    program     static D:\UVG\Tercer año\Segundo semestre\Progra de micros\MPLAB\prueba 2 p1.X\prueba 2p1.asm
          _MAIN_PROG_004A   0x00005c    program     static D:\UVG\Tercer año\Segundo semestre\Progra de micros\MPLAB\prueba 2 p1.X\prueba 2p1.asm
        AUMENTAR_MES_ES_2   0x000060    program     static D:\UVG\Tercer año\Segundo semestre\Progra de micros\MPLAB\prueba 2 p1.X\prueba 2p1.asm
          _MAIN_PROG_0050   0x000062    program     static D:\UVG\Tercer año\Segundo semestre\Progra de micros\MPLAB\prueba 2 p1.X\prueba 2p1.asm
                 FECHA_ON   0x000066    program     static D:\UVG\Tercer año\Segundo semestre\Progra de micros\MPLAB\prueba 2 p1.X\prueba 2p1.asm
                FECHA_OFF   0x000071    program     static D:\UVG\Tercer año\Segundo semestre\Progra de micros\MPLAB\prueba 2 p1.X\prueba 2p1.asm
        FIN_BANDERA_FECHA   0x00007b    program     static D:\UVG\Tercer año\Segundo semestre\Progra de micros\MPLAB\prueba 2 p1.X\prueba 2p1.asm
                CONFIG_IO   0x000082    program     static D:\UVG\Tercer año\Segundo semestre\Progra de micros\MPLAB\prueba 2 p1.X\prueba 2p1.asm
            CONFIG_TIMER0   0x0000c0    program     static D:\UVG\Tercer año\Segundo semestre\Progra de micros\MPLAB\prueba 2 p1.X\prueba 2p1.asm
            CONFIG_TIMER1   0x0000cd    program     static D:\UVG\Tercer año\Segundo semestre\Progra de micros\MPLAB\prueba 2 p1.X\prueba 2p1.asm
            CONFIG_TIMER2   0x0000db    program     static D:\UVG\Tercer año\Segundo semestre\Progra de micros\MPLAB\prueba 2 p1.X\prueba 2p1.asm
    CONFIG_INTERRUPCIONES   0x0000e8    program     static D:\UVG\Tercer año\Segundo semestre\Progra de micros\MPLAB\prueba 2 p1.X\prueba 2p1.asm
               TABLA_7SEG   0x0000f7    program     static D:\UVG\Tercer año\Segundo semestre\Progra de micros\MPLAB\prueba 2 p1.X\prueba 2p1.asm
        TABLA_DIA_UNI_MAX   0x000104    program     static D:\UVG\Tercer año\Segundo semestre\Progra de micros\MPLAB\prueba 2 p1.X\prueba 2p1.asm
        TABLA_DIA_DEC_MAX   0x000112    program     static D:\UVG\Tercer año\Segundo semestre\Progra de micros\MPLAB\prueba 2 p1.X\prueba 2p1.asm
               FUE_TIMER0   0x000120    program     static D:\UVG\Tercer año\Segundo semestre\Progra de micros\MPLAB\prueba 2 p1.X\prueba 2p1.asm
                   DISP_1   0x00012c    program     static D:\UVG\Tercer año\Segundo semestre\Progra de micros\MPLAB\prueba 2 p1.X\prueba 2p1.asm
                   DISP_2   0x000134    program     static D:\UVG\Tercer año\Segundo semestre\Progra de micros\MPLAB\prueba 2 p1.X\prueba 2p1.asm
                   DISP_3   0x00013c    program     static D:\UVG\Tercer año\Segundo semestre\Progra de micros\MPLAB\prueba 2 p1.X\prueba 2p1.asm
                   DISP_4   0x000144    program     static D:\UVG\Tercer año\Segundo semestre\Progra de micros\MPLAB\prueba 2 p1.X\prueba 2p1.asm
               FUE_TIMER1   0x00014c    program     static D:\UVG\Tercer año\Segundo semestre\Progra de micros\MPLAB\prueba 2 p1.X\prueba 2p1.asm
                    FINT1   0x00015c    program     static D:\UVG\Tercer año\Segundo semestre\Progra de micros\MPLAB\prueba 2 p1.X\prueba 2p1.asm
               FUE_TIMER2   0x00015d    program     static D:\UVG\Tercer año\Segundo semestre\Progra de micros\MPLAB\prueba 2 p1.X\prueba 2p1.asm
      VERIFICAR_ALARMA_T2   0x000168    program     static D:\UVG\Tercer año\Segundo semestre\Progra de micros\MPLAB\prueba 2 p1.X\prueba 2p1.asm
                 FIN_TMR2   0x00016b    program     static D:\UVG\Tercer año\Segundo semestre\Progra de micros\MPLAB\prueba 2 p1.X\prueba 2p1.asm
         VER_HORA_D_ALARM   0x00016c    program     static D:\UVG\Tercer año\Segundo semestre\Progra de micros\MPLAB\prueba 2 p1.X\prueba 2p1.asm
         VER_HORA_U_ALARM   0x000172    program     static D:\UVG\Tercer año\Segundo semestre\Progra de micros\MPLAB\prueba 2 p1.X\prueba 2p1.asm
          VER_MIN_D_ALARM   0x000178    program     static D:\UVG\Tercer año\Segundo semestre\Progra de micros\MPLAB\prueba 2 p1.X\prueba 2p1.asm
          VER_MIN_U_ALARM   0x00017e    program     static D:\UVG\Tercer año\Segundo semestre\Progra de micros\MPLAB\prueba 2 p1.X\prueba 2p1.asm
                   ON_LED   0x000185    program     static D:\UVG\Tercer año\Segundo semestre\Progra de micros\MPLAB\prueba 2 p1.X\prueba 2p1.asm
                  OFF_LED   0x000188    program     static D:\UVG\Tercer año\Segundo semestre\Progra de micros\MPLAB\prueba 2 p1.X\prueba 2p1.asm
                ALARMA_ON   0x00018b    program     static D:\UVG\Tercer año\Segundo semestre\Progra de micros\MPLAB\prueba 2 p1.X\prueba 2p1.asm
             CONT1SEGUNDO   0x000196    program     static D:\UVG\Tercer año\Segundo semestre\Progra de micros\MPLAB\prueba 2 p1.X\prueba 2p1.asm
                CONTMIN_U   0x0001a1    program     static D:\UVG\Tercer año\Segundo semestre\Progra de micros\MPLAB\prueba 2 p1.X\prueba 2p1.asm
               CONT_HORAS   0x0001b1    program     static D:\UVG\Tercer año\Segundo semestre\Progra de micros\MPLAB\prueba 2 p1.X\prueba 2p1.asm
                CONT_DIAS   0x0001c0    program     static D:\UVG\Tercer año\Segundo semestre\Progra de micros\MPLAB\prueba 2 p1.X\prueba 2p1.asm
               CONT_MESES   0x0001d0    program     static D:\UVG\Tercer año\Segundo semestre\Progra de micros\MPLAB\prueba 2 p1.X\prueba 2p1.asm
                PARAR_DIA   0x0001db    program     static D:\UVG\Tercer año\Segundo semestre\Progra de micros\MPLAB\prueba 2 p1.X\prueba 2p1.asm
                    PARAR   0x0001e1    program     static D:\UVG\Tercer año\Segundo semestre\Progra de micros\MPLAB\prueba 2 p1.X\prueba 2p1.asm
                PARAR_MES   0x0001e6    program     static D:\UVG\Tercer año\Segundo semestre\Progra de micros\MPLAB\prueba 2 p1.X\prueba 2p1.asm
                  LIMPIAR   0x0001eb    program     static D:\UVG\Tercer año\Segundo semestre\Progra de micros\MPLAB\prueba 2 p1.X\prueba 2p1.asm
              LIMPIAR_MES   0x0001f5    program     static D:\UVG\Tercer año\Segundo semestre\Progra de micros\MPLAB\prueba 2 p1.X\prueba 2p1.asm
              LIMPIAR_DIA   0x0001ff    program     static D:\UVG\Tercer año\Segundo semestre\Progra de micros\MPLAB\prueba 2 p1.X\prueba 2p1.asm
          CONTMIN_U_ALARM   0x000208    program     static D:\UVG\Tercer año\Segundo semestre\Progra de micros\MPLAB\prueba 2 p1.X\prueba 2p1.asm
         CONT_HORAS_ALARM   0x000216    program     static D:\UVG\Tercer año\Segundo semestre\Progra de micros\MPLAB\prueba 2 p1.X\prueba 2p1.asm
              PARAR_ALARM   0x000225    program     static D:\UVG\Tercer año\Segundo semestre\Progra de micros\MPLAB\prueba 2 p1.X\prueba 2p1.asm
            LIMPIAR_ALARM   0x00022a    program     static D:\UVG\Tercer año\Segundo semestre\Progra de micros\MPLAB\prueba 2 p1.X\prueba 2p1.asm
         MODIFICAR_ALARMA   0x000230    program     static D:\UVG\Tercer año\Segundo semestre\Progra de micros\MPLAB\prueba 2 p1.X\prueba 2p1.asm
          _MAIN_PROG_0220   0x000232    program     static D:\UVG\Tercer año\Segundo semestre\Progra de micros\MPLAB\prueba 2 p1.X\prueba 2p1.asm
    MODIFICAR_ALARMA_INIT   0x000235    program     static D:\UVG\Tercer año\Segundo semestre\Progra de micros\MPLAB\prueba 2 p1.X\prueba 2p1.asm
          _MAIN_PROG_0233   0x000245    program     static D:\UVG\Tercer año\Segundo semestre\Progra de micros\MPLAB\prueba 2 p1.X\prueba 2p1.asm
     AUMENTAR_MIN_ALARM_3   0x000249    program     static D:\UVG\Tercer año\Segundo semestre\Progra de micros\MPLAB\prueba 2 p1.X\prueba 2p1.asm
          _MAIN_PROG_0239   0x00024b    program     static D:\UVG\Tercer año\Segundo semestre\Progra de micros\MPLAB\prueba 2 p1.X\prueba 2p1.asm
    AUMENTAR_HORA_ALARM_3   0x00024f    program     static D:\UVG\Tercer año\Segundo semestre\Progra de micros\MPLAB\prueba 2 p1.X\prueba 2p1.asm
          _MAIN_PROG_023F   0x000251    program     static D:\UVG\Tercer año\Segundo semestre\Progra de micros\MPLAB\prueba 2 p1.X\prueba 2p1.asm
                 DELAY_R1   0x000255    program     static D:\UVG\Tercer año\Segundo semestre\Progra de micros\MPLAB\prueba 2 p1.X\prueba 2p1.asm
          _MAIN_PROG_0246   0x000258    program     static D:\UVG\Tercer año\Segundo semestre\Progra de micros\MPLAB\prueba 2 p1.X\prueba 2p1.asm
                      AÑO   0x000020       data     static D:\UVG\Tercer año\Segundo semestre\Progra de micros\MPLAB\prueba 2 p1.X\prueba 2p1.asm
            ALARMA_ON_BAN   0x000021       data     static D:\UVG\Tercer año\Segundo semestre\Progra de micros\MPLAB\prueba 2 p1.X\prueba 2p1.asm
                BANDERA_A   0x000022       data     static D:\UVG\Tercer año\Segundo semestre\Progra de micros\MPLAB\prueba 2 p1.X\prueba 2p1.asm
                BANDERA_B   0x000023       data     static D:\UVG\Tercer año\Segundo semestre\Progra de micros\MPLAB\prueba 2 p1.X\prueba 2p1.asm
                BANDERA_C   0x000024       data     static D:\UVG\Tercer año\Segundo semestre\Progra de micros\MPLAB\prueba 2 p1.X\prueba 2p1.asm
                BANDERA_D   0x000025       data     static D:\UVG\Tercer año\Segundo semestre\Progra de micros\MPLAB\prueba 2 p1.X\prueba 2p1.asm
             BANDERA_ES_1   0x000026       data     static D:\UVG\Tercer año\Segundo semestre\Progra de micros\MPLAB\prueba 2 p1.X\prueba 2p1.asm
             BANDERA_ES_2   0x000027       data     static D:\UVG\Tercer año\Segundo semestre\Progra de micros\MPLAB\prueba 2 p1.X\prueba 2p1.asm
             BANDERA_ES_3   0x000028       data     static D:\UVG\Tercer año\Segundo semestre\Progra de micros\MPLAB\prueba 2 p1.X\prueba 2p1.asm
            BANDERA_FECHA   0x000029       data     static D:\UVG\Tercer año\Segundo semestre\Progra de micros\MPLAB\prueba 2 p1.X\prueba 2p1.asm
                  CONT_1S   0x00002a       data     static D:\UVG\Tercer año\Segundo semestre\Progra de micros\MPLAB\prueba 2 p1.X\prueba 2p1.asm
                 CONT_60S   0x00002b       data     static D:\UVG\Tercer año\Segundo semestre\Progra de micros\MPLAB\prueba 2 p1.X\prueba 2p1.asm
               CONT_500MS   0x00002c       data     static D:\UVG\Tercer año\Segundo semestre\Progra de micros\MPLAB\prueba 2 p1.X\prueba 2p1.asm
                    CONT1   0x00002d       data     static D:\UVG\Tercer año\Segundo semestre\Progra de micros\MPLAB\prueba 2 p1.X\prueba 2p1.asm
                    CONT2   0x00002e       data     static D:\UVG\Tercer año\Segundo semestre\Progra de micros\MPLAB\prueba 2 p1.X\prueba 2p1.asm
              CONT_ALARMA   0x00002f       data     static D:\UVG\Tercer año\Segundo semestre\Progra de micros\MPLAB\prueba 2 p1.X\prueba 2p1.asm
                  DELAY_1   0x000030       data     static D:\UVG\Tercer año\Segundo semestre\Progra de micros\MPLAB\prueba 2 p1.X\prueba 2p1.asm
                  DIA_UNI   0x000031       data     static D:\UVG\Tercer año\Segundo semestre\Progra de micros\MPLAB\prueba 2 p1.X\prueba 2p1.asm
                  DIA_DEC   0x000032       data     static D:\UVG\Tercer año\Segundo semestre\Progra de micros\MPLAB\prueba 2 p1.X\prueba 2p1.asm
                DISPLAY_1   0x000033       data     static D:\UVG\Tercer año\Segundo semestre\Progra de micros\MPLAB\prueba 2 p1.X\prueba 2p1.asm
                DISPLAY_2   0x000034       data     static D:\UVG\Tercer año\Segundo semestre\Progra de micros\MPLAB\prueba 2 p1.X\prueba 2p1.asm
                DISPLAY_3   0x000035       data     static D:\UVG\Tercer año\Segundo semestre\Progra de micros\MPLAB\prueba 2 p1.X\prueba 2p1.asm
                DISPLAY_4   0x000036       data     static D:\UVG\Tercer año\Segundo semestre\Progra de micros\MPLAB\prueba 2 p1.X\prueba 2p1.asm
                DIA_U_MAX   0x000037       data     static D:\UVG\Tercer año\Segundo semestre\Progra de micros\MPLAB\prueba 2 p1.X\prueba 2p1.asm
                DIA_D_MAX   0x000038       data     static D:\UVG\Tercer año\Segundo semestre\Progra de micros\MPLAB\prueba 2 p1.X\prueba 2p1.asm
                   HORA_U   0x000039       data     static D:\UVG\Tercer año\Segundo semestre\Progra de micros\MPLAB\prueba 2 p1.X\prueba 2p1.asm
                   HORA_D   0x00003a       data     static D:\UVG\Tercer año\Segundo semestre\Progra de micros\MPLAB\prueba 2 p1.X\prueba 2p1.asm
                   HORA24   0x00003b       data     static D:\UVG\Tercer año\Segundo semestre\Progra de micros\MPLAB\prueba 2 p1.X\prueba 2p1.asm
             HORA_U_ALARM   0x00003c       data     static D:\UVG\Tercer año\Segundo semestre\Progra de micros\MPLAB\prueba 2 p1.X\prueba 2p1.asm
             HORA_D_ALARM   0x00003d       data     static D:\UVG\Tercer año\Segundo semestre\Progra de micros\MPLAB\prueba 2 p1.X\prueba 2p1.asm
                INTER_LED   0x00003e       data     static D:\UVG\Tercer año\Segundo semestre\Progra de micros\MPLAB\prueba 2 p1.X\prueba 2p1.asm
                    MIN_U   0x00003f       data     static D:\UVG\Tercer año\Segundo semestre\Progra de micros\MPLAB\prueba 2 p1.X\prueba 2p1.asm
                    MIN_D   0x000040       data     static D:\UVG\Tercer año\Segundo semestre\Progra de micros\MPLAB\prueba 2 p1.X\prueba 2p1.asm
                      MES   0x000041       data     static D:\UVG\Tercer año\Segundo semestre\Progra de micros\MPLAB\prueba 2 p1.X\prueba 2p1.asm
                    MES_U   0x000042       data     static D:\UVG\Tercer año\Segundo semestre\Progra de micros\MPLAB\prueba 2 p1.X\prueba 2p1.asm
                    MES_D   0x000043       data     static D:\UVG\Tercer año\Segundo semestre\Progra de micros\MPLAB\prueba 2 p1.X\prueba 2p1.asm
                    MES12   0x000044       data     static D:\UVG\Tercer año\Segundo semestre\Progra de micros\MPLAB\prueba 2 p1.X\prueba 2p1.asm
              MIN_U_ALARM   0x000045       data     static D:\UVG\Tercer año\Segundo semestre\Progra de micros\MPLAB\prueba 2 p1.X\prueba 2p1.asm
              MIN_D_ALARM   0x000046       data     static D:\UVG\Tercer año\Segundo semestre\Progra de micros\MPLAB\prueba 2 p1.X\prueba 2p1.asm
                     STOP   0x000047       data     static D:\UVG\Tercer año\Segundo semestre\Progra de micros\MPLAB\prueba 2 p1.X\prueba 2p1.asm
                 STOP_DIA   0x000048       data     static D:\UVG\Tercer año\Segundo semestre\Progra de micros\MPLAB\prueba 2 p1.X\prueba 2p1.asm
                 STOP_MES   0x000049       data     static D:\UVG\Tercer año\Segundo semestre\Progra de micros\MPLAB\prueba 2 p1.X\prueba 2p1.asm
               STOP_ALARM   0x00004a       data     static D:\UVG\Tercer año\Segundo semestre\Progra de micros\MPLAB\prueba 2 p1.X\prueba 2p1.asm
              STATUS_TEMP   0x00004b       data     static D:\UVG\Tercer año\Segundo semestre\Progra de micros\MPLAB\prueba 2 p1.X\prueba 2p1.asm
                   W_TEMP   0x00004c       data     static D:\UVG\Tercer año\Segundo semestre\Progra de micros\MPLAB\prueba 2 p1.X\prueba 2p1.asm


