MPASM 5.77                 LABORATORIO 2.ASM   8-13-2020  22:29:46         PAGE  1


LOC  OBJECT CODE     LINE SOURCE TEXT
  VALUE

                      00001 ;******************************************************************************
                      00002 ;                                                                             *
                      00003 ;     Filaname:     lab -> laboratorio #2.asm                                 *
                      00004 ;     Date          07/08/2020                                                *
                      00005 ;     File version: v.1                                                       *
                      00006 ;     author :        Yefry Sajquiy - 18748                                   *
                      00007 ;     ompany;        UVG                                                      *
                      00008 ;     Description:   contador de 4 bits                                       *
                      00009 ;      suma de los contadores                                                 *
                      00010 ;******************************************************************************
                      00011 
                      00012     #include "p16f887.inc" 
                      00001         LIST
                      00002 
                      00003 ;==========================================================================
                      00004 ; Build date : Nov 22 2017
                      00005 ;  MPASM PIC16F887 processor include
                      00006 ; 
                      00007 ;  (c) Copyright 1999-2017 Microchip Technology, All rights reserved
                      00008 ;==========================================================================
                      00009 
                      00810         LIST
                      00013     
                      00014 ;CONFIG1
                      00015 ;__config 0xF0F1
2007   20D4           00016  __CONFIG _CONFIG1, _FOSC_INTRC_NOCLKOUT & _WDTE_OFF & _PWRTE_OFF & _MCLRE_OFF &_CP_OFF & _CPD_OFF & _BO
                            REN_OFF & _IESO_OFF & _FCMEN_OFF & _LVP_OFF
                      00017 ;CONFIG2
                      00018 ; __config 0xFFFF
2008   3FFF           00019  __CONFIG _CONFIG2, _BOR4V_BOR40V & _WRT_OFF
                      00020 
                      00021  
                      00022 ; -------------------- MACROS -----------------------------------------------
                      00023 
                      00024 INPUT MACRO FILE, BIT
                      00025     BSF FILE, BIT
                      00026     ENDM 
                      00027 
                      00028 ; -------------------- EQU-----------------------------------------------
                      00029 
  00000000            00030 BUTTON_A    EQU RA0
  00000001            00031 BUTTON_B    EQU RA1
  00000002            00032 BUTTON_C    EQU RA2
  00000003            00033 BUTTON_D    EQU RA3
  00000005            00034 BUTTON_P    EQU RA5
                      00035 
                      00036 
                      00037     
                      00038 ;******************************************************************************
                      00039 
                      00040 GPR_VAR     UDATA
Warning[207]: Found label after column 1. (CONT1)
0000                  00041    CONT1   RES 1    ; VARIABLE PARA LLAMAR AL DELAY
MPASM 5.77                 LABORATORIO 2.ASM   8-13-2020  22:29:46         PAGE  2


LOC  OBJECT CODE     LINE SOURCE TEXT
  VALUE

Warning[207]: Found label after column 1. (CONT2)
0001                  00042    CONT2   RES 1    ; VARIABLE PARA LLAMAR AL DELAY 
Warning[207]: Found label after column 1. (FLAGS)
0002                  00043    FLAGS   RES 1
                      00044 
                      00045 ;******************************************************************************
                      00046    
                      00047 RES_VECT  CODE    0x0000            ; processor reset vector
0000   2???           00048     GOTO    START                   ; go to beginning of program
                      00049 
                      00050 ; TODO ADD INTERRUPTS HERE IF USED
                      00051 
                      00052 MAIN_PROG CODE         0x100             ; let linker place main program
                      00053 
0100                  00054 START
                      00055 ;SETUP
                      00056     ; BNAK STATUS BITS 6,5
0100   1283 1303      00057     BANKSEL     PORTA   ;BANCO 0
0102   0185           00058     CLRF        PORTA   ;BORRA EL PUERTO A
0103   0187           00059     CLRF        PORTC
0104   0186           00060     CLRF        PORTB
0105   0188           00061     CLRF        PORTD
0106   0189           00062     CLRF        PORTE
                      00063  
                      00064     
0107   1683 1703      00065     BANKSEL     ANSEL
Message[302]: Register in operand not in bank 0.  Ensure that bank bits are correct.
0109   0188           00066     CLRF        ANSEL
Message[302]: Register in operand not in bank 0.  Ensure that bank bits are correct.
010A   0189           00067     CLRF        ANSELH  
                      00068     
                      00069     ;***********************************************************************
010B   1683 1303      00070     BANKSEL TRISA     
Message[302]: Register in operand not in bank 0.  Ensure that bank bits are correct.
010D   0185           00071     CLRF    TRISA
010E   303F           00072     MOVLW   B'00111111'
Message[302]: Register in operand not in bank 0.  Ensure that bank bits are correct.
010F   0085           00073     MOVWF   TRISA
                      00074    
                      00075     
Message[302]: Register in operand not in bank 0.  Ensure that bank bits are correct.
0110   0187           00076     CLRF    TRISC
0111   30F0           00077     MOVLW   B'11110000'
Message[302]: Register in operand not in bank 0.  Ensure that bank bits are correct.
0112   0087           00078     MOVWF   TRISC
                      00079     
Message[302]: Register in operand not in bank 0.  Ensure that bank bits are correct.
0113   0188           00080     CLRF    TRISD
0114   30F0           00081     MOVLW   B'11110000'
Message[302]: Register in operand not in bank 0.  Ensure that bank bits are correct.
0115   0088           00082     MOVWF   TRISD
                      00083     
Message[302]: Register in operand not in bank 0.  Ensure that bank bits are correct.
MPASM 5.77                 LABORATORIO 2.ASM   8-13-2020  22:29:46         PAGE  3


LOC  OBJECT CODE     LINE SOURCE TEXT
  VALUE

0116   0186           00084     CLRF    TRISB
0117   30F0           00085     MOVLW   B'11110000'
Message[302]: Register in operand not in bank 0.  Ensure that bank bits are correct.
0118   0086           00086     MOVWF   TRISB 
                      00087    
                      00088     ;**********************************************************************
                      00089         
0119   1283 1303      00090     BANKSEL     PORTA 
011B   0185           00091     CLRF        PORTA 
011C   0189           00092     CLRF        PORTE 
011D   0187           00093     CLRF        PORTC
011E   0189           00094     CLRF        PORTE
                      00095 
                      00096 ;******************************************************************************
                      00097 ;     MAIN LOOP
                      00098 ;******************************************************************************
                      00099 
011F                  00100 LOOP:
011F   1283 1303      00101    BANKSEL  PORTA
0121   1C05           00102    BTFSS    PORTA, BUTTON_A
0122   2???           00103    GOTO     LOOP2
                      00104    
0123   1405           00105    BSF      PORTA, BUTTON_A
0124   2???           00106    GOTO     INCRE
0125   2???           00107    CALL     DELAY_SMALL
                      00108    
                      00109    
0126                  00110 LOOP2:
0126   1C85           00111    BTFSS    PORTA, BUTTON_B
0127   2???           00112    GOTO     LOOP3
                      00113    
0128   1485           00114    BSF      PORTA, BUTTON_B
0129   2???           00115    GOTO     DECRE
012A   2???           00116    CALL     DELAY_SMALL
                      00117 
012B                  00118 LOOP3:
012B   1D05           00119    BTFSS    PORTA, BUTTON_C
012C   2???           00120    GOTO     LOOP4
                      00121    
012D   1505           00122    BSF      PORTA, BUTTON_C
012E   2???           00123    GOTO     INCRE2
012F   2???           00124    CALL     DELAY_BIG
                      00125    
0130                  00126 LOOP4:
0130   1D85           00127    BTFSS    PORTA, BUTTON_D
0131   2???           00128    GOTO     LOOP5
                      00129    
0132   1585           00130    BSF      PORTA, BUTTON_D
0133   2???           00131    GOTO     DECRE2
0134   2???           00132    CALL     DELAY_BIG
                      00133    
0135                  00134 LOOP5:
0135   1E85           00135    BTFSS    PORTA, BUTTON_P
MPASM 5.77                 LABORATORIO 2.ASM   8-13-2020  22:29:46         PAGE  4


LOC  OBJECT CODE     LINE SOURCE TEXT
  VALUE

0136   2???           00136    GOTO     LOOP
                      00137    
0137   1685           00138    BSF      PORTA, BUTTON_P
0138   2???           00139    GOTO     YEFRY
0139   2???           00140    CALL     DELAY_SMALL
                      00141    
                      00142 ;---------------------------------------------------------------------------
                      00143     
013A                  00144 INCRE:  ;INCREMENTO 1
013A   1805           00145     BTFSC   PORTA, BUTTON_A
013B   2???           00146     GOTO    INCRE
013C   2???           00147     CALL    DELAY_SMALL
013D   0A87           00148     INCF    PORTC  , F
013E   2???           00149     GOTO    LOOP 
                      00150 
013F                  00151 DECRE: ; DECREMENTO 2
013F   1885           00152     BTFSC   PORTA, BUTTON_B
0140   2???           00153     GOTO    DECRE
0141   2???           00154     CALL    DELAY_SMALL
0142   0387           00155     DECF    PORTC, F
0143   2???           00156     GOTO    LOOP
                      00157    
0144                  00158 INCRE2:
0144   2???           00159     CALL    DELAY_BIG
0145   1905           00160     BTFSC   PORTA, BUTTON_C
0146   2???           00161     GOTO    INCRE2
0147   2???           00162     CALL    DELAY_BIG
0148   0A88           00163     INCF    PORTD , F
0149   2???           00164     CALL    DELAY_BIG
014A   2???           00165     GOTO    LOOP 
                      00166 
014B                  00167 DECRE2:
014B   2???           00168     CALL    DELAY_BIG
014C   1985           00169     BTFSC   PORTA, BUTTON_D
014D   2???           00170     GOTO    DECRE2
014E   0388           00171     DECF    PORTD, F
014F   2???           00172     GOTO    LOOP
0150   2???           00173     CALL    DELAY_SMALL
                      00174 
0151                  00175 YEFRY:
0151   1A85           00176     BTFSC   PORTA, BUTTON_P
0152   2???           00177     GOTO    YEFRY
0153   0A86           00178     INCF    PORTB, F
0154   2???           00179     GOTO    LOOP
0155   2???           00180     CALL    DELAY_SMALL
                      00181     
                      00182     
                      00183    
                      00184 ;******************************************************************************
                      00185 ;     SUB RUTINA PARA DELAY
                      00186 ;******************************************************************************
                      00187     
0156                  00188 DELAY_BIG:
MPASM 5.77                 LABORATORIO 2.ASM   8-13-2020  22:29:46         PAGE  5


LOC  OBJECT CODE     LINE SOURCE TEXT
  VALUE

0156   3032           00189     MOVLW   .50     ;0X100
0157   00??           00190     MOVWF   CONT2  ;0X100
0158                  00191 CONFIG1:
0158   2???           00192     CALL    DELAY_SMALL     ;0X10E
0159   0B??           00193     DECFSZ  CONT2, F        ;0X10F
015A   2???           00194     GOTO    CONFIG1
Warning[203]: Found opcode in column 1. (RETURN)
015B   0008           00195 RETURN 
                      00196 
015C                  00197 DELAY_SMALL:
015C   3096           00198     MOVLW   .150
015D   00??           00199     MOVWF   CONT1
015E   0B??           00200     DECFSZ  CONT1, F 
015F   2???           00201     GOTO    $-1         ; IR A PC  -1 ,REGRESAR A DECFSZ    
Warning[203]: Found opcode in column 1. (RETURN)
0160   0008           00202 RETURN 
                      00203 
                      00204 ;******************************************************************************
                      00205    
20D4 3FFF             00206     END
MPASM 5.77                 LABORATORIO 2.ASM   8-13-2020  22:29:46         PAGE  6


SYMBOL TABLE
  LABEL                             VALUE 

ABDEN                             00000000
ABDOVF                            00000007
ACKDT                             00000005
ACKEN                             00000004
ACKSTAT                           00000006
ADCON0                            0000001F
ADCON1                            0000009F
ADCS0                             00000006
ADCS1                             00000007
ADDEN                             00000003
ADFM                              00000007
ADIE                              00000006
ADIF                              00000006
ADON                              00000000
ADRESH                            0000001E
ADRESL                            0000009E
ANS0                              00000000
ANS1                              00000001
ANS10                             00000002
ANS11                             00000003
ANS12                             00000004
ANS13                             00000005
ANS2                              00000002
ANS3                              00000003
ANS4                              00000004
ANS5                              00000005
ANS6                              00000006
ANS7                              00000007
ANS8                              00000000
ANS9                              00000001
ANSEL                             00000188
ANSELH                            00000189
BAUDCTL                           00000187
BCLIE                             00000003
BCLIF                             00000003
BF                                00000000
BRG0                              00000000
BRG1                              00000001
BRG10                             00000002
BRG11                             00000003
BRG12                             00000004
BRG13                             00000005
BRG14                             00000006
BRG15                             00000007
BRG16                             00000003
BRG2                              00000002
BRG3                              00000003
BRG4                              00000004
BRG5                              00000005
BRG6                              00000006
BRG7                              00000007
BRG8                              00000000
BRG9                              00000001
MPASM 5.77                 LABORATORIO 2.ASM   8-13-2020  22:29:46         PAGE  7


SYMBOL TABLE
  LABEL                             VALUE 

BRGH                              00000002
BUTTON_A                          00000000
BUTTON_B                          00000001
BUTTON_C                          00000002
BUTTON_D                          00000003
BUTTON_P                          00000005
C                                 00000000
C1CH0                             00000000
C1CH1                             00000001
C1IE                              00000005
C1IF                              00000005
C1OE                              00000005
C1ON                              00000007
C1OUT                             00000006
C1POL                             00000004
C1R                               00000002
C1RSEL                            00000005
C1SEN                             00000005
C2CH0                             00000000
C2CH1                             00000001
C2IE                              00000006
C2IF                              00000006
C2OE                              00000005
C2ON                              00000007
C2OUT                             00000006
C2POL                             00000004
C2R                               00000002
C2REN                             00000004
C2RSEL                            00000004
C2SYNC                            00000000
CCP1CON                           00000017
CCP1IE                            00000002
CCP1IF                            00000002
CCP1M0                            00000000
CCP1M1                            00000001
CCP1M2                            00000002
CCP1M3                            00000003
CCP1X                             00000005
CCP1Y                             00000004
CCP2CON                           0000001D
CCP2IE                            00000000
CCP2IF                            00000000
CCP2M0                            00000000
CCP2M1                            00000001
CCP2M2                            00000002
CCP2M3                            00000003
CCP2X                             00000005
CCP2Y                             00000004
CCPR1                             00000015
CCPR1H                            00000016
CCPR1L                            00000015
CCPR2                             0000001B
CCPR2H                            0000001C
MPASM 5.77                 LABORATORIO 2.ASM   8-13-2020  22:29:46         PAGE  8


SYMBOL TABLE
  LABEL                             VALUE 

CCPR2L                            0000001B
CHS0                              00000002
CHS1                              00000003
CHS2                              00000004
CHS3                              00000005
CKE                               00000006
CKP                               00000004
CM1CON0                           00000107
CM2CON0                           00000108
CM2CON1                           00000109
CONFIG1                           00000158
CONT1                             00000000
CONT2                             00000001
CREN                              00000004
CSRC                              00000007
D                                 00000005
DATA_ADDRESS                      00000005
DC                                00000001
DC1B0                             00000004
DC1B1                             00000005
DC2B0                             00000004
DC2B1                             00000005
DECRE                             0000013F
DECRE2                            0000014B
DELAY_BIG                         00000156
DELAY_SMALL                       0000015C
D_A                               00000005
D_NOT_A                           00000005
ECCPAS                            0000009C
ECCPAS0                           00000004
ECCPAS1                           00000005
ECCPAS2                           00000006
ECCPASE                           00000007
EEADR                             0000010D
EEADRH                            0000010F
EECON1                            0000018C
EECON2                            0000018D
EEDAT                             0000010C
EEDATA                            0000010C
EEDATH                            0000010E
EEIE                              00000004
EEIF                              00000004
EEPGD                             00000007
F                                 00000001
FERR                              00000002
FLAGS                             00000002
FSR                               00000004
FVREN                             00000000
GCEN                              00000007
GIE                               00000007
GO                                00000001
GO_DONE                           00000001
GO_NOT_DONE                       00000001
MPASM 5.77                 LABORATORIO 2.ASM   8-13-2020  22:29:46         PAGE  9


SYMBOL TABLE
  LABEL                             VALUE 

HTS                               00000002
I2C_DATA                          00000005
I2C_READ                          00000002
I2C_START                         00000003
I2C_STOP                          00000004
INCRE                             0000013A
INCRE2                            00000144
INDF                              00000000
INPUT                             
INTCON                            0000000B
INTE                              00000004
INTEDG                            00000006
INTF                              00000001
IOCB                              00000096
IOCB0                             00000000
IOCB1                             00000001
IOCB2                             00000002
IOCB3                             00000003
IOCB4                             00000004
IOCB5                             00000005
IOCB6                             00000006
IOCB7                             00000007
IRCF0                             00000004
IRCF1                             00000005
IRCF2                             00000006
IRP                               00000007
LOOP                              0000011F
LOOP2                             00000126
LOOP3                             0000012B
LOOP4                             00000130
LOOP5                             00000135
LTS                               00000001
MC1OUT                            00000007
MC2OUT                            00000006
MSK                               00000093
MSK0                              00000000
MSK1                              00000001
MSK2                              00000002
MSK3                              00000003
MSK4                              00000004
MSK5                              00000005
MSK6                              00000006
MSK7                              00000007
NOT_A                             00000005
NOT_ADDRESS                       00000005
NOT_BO                            00000000
NOT_BOR                           00000000
NOT_DONE                          00000001
NOT_PD                            00000003
NOT_POR                           00000001
NOT_RBPU                          00000007
NOT_RC8                           00000006
NOT_T1SYNC                        00000002
MPASM 5.77                 LABORATORIO 2.ASM   8-13-2020  22:29:46         PAGE 10


SYMBOL TABLE
  LABEL                             VALUE 

NOT_TO                            00000004
NOT_TX8                           00000006
NOT_W                             00000002
NOT_WRITE                         00000002
OERR                              00000001
OPTION_REG                        00000081
OSCCON                            0000008F
OSCTUNE                           00000090
OSFIE                             00000007
OSFIF                             00000007
OSTS                              00000003
P                                 00000004
P1M0                              00000006
P1M1                              00000007
PCL                               00000002
PCLATH                            0000000A
PCON                              0000008E
PDC0                              00000000
PDC1                              00000001
PDC2                              00000002
PDC3                              00000003
PDC4                              00000004
PDC5                              00000005
PDC6                              00000006
PEIE                              00000006
PEN                               00000002
PIE1                              0000008C
PIE2                              0000008D
PIR1                              0000000C
PIR2                              0000000D
PORTA                             00000005
PORTB                             00000006
PORTC                             00000007
PORTD                             00000008
PORTE                             00000009
PR2                               00000092
PRSEN                             00000007
PS0                               00000000
PS1                               00000001
PS2                               00000002
PSA                               00000003
PSSAC0                            00000002
PSSAC1                            00000003
PSSBD0                            00000000
PSSBD1                            00000001
PSTRCON                           0000009D
PULSR                             00000002
PULSS                             00000003
PWM1CON                           0000009B
R                                 00000002
RA0                               00000000
RA1                               00000001
RA2                               00000002
MPASM 5.77                 LABORATORIO 2.ASM   8-13-2020  22:29:46         PAGE 11


SYMBOL TABLE
  LABEL                             VALUE 

RA3                               00000003
RA4                               00000004
RA5                               00000005
RA6                               00000006
RA7                               00000007
RB0                               00000000
RB1                               00000001
RB2                               00000002
RB3                               00000003
RB4                               00000004
RB5                               00000005
RB6                               00000006
RB7                               00000007
RBIE                              00000003
RBIF                              00000000
RC0                               00000000
RC1                               00000001
RC2                               00000002
RC3                               00000003
RC4                               00000004
RC5                               00000005
RC6                               00000006
RC7                               00000007
RC8_9                             00000006
RC9                               00000006
RCD8                              00000000
RCEN                              00000003
RCIDL                             00000006
RCIE                              00000005
RCIF                              00000005
RCREG                             0000001A
RCSTA                             00000018
RD                                00000000
RD0                               00000000
RD1                               00000001
RD2                               00000002
RD3                               00000003
RD4                               00000004
RD5                               00000005
RD6                               00000006
RD7                               00000007
RE0                               00000000
RE1                               00000001
RE2                               00000002
RE3                               00000003
READ_WRITE                        00000002
RP0                               00000005
RP1                               00000006
RSEN                              00000001
RX9                               00000006
RX9D                              00000000
R_NOT_W                           00000002
R_W                               00000002
MPASM 5.77                 LABORATORIO 2.ASM   8-13-2020  22:29:46         PAGE 12


SYMBOL TABLE
  LABEL                             VALUE 

S                                 00000003
SBOREN                            00000004
SCKP                              00000004
SCS                               00000000
SEN                               00000000
SENDB                             00000003
SMP                               00000007
SPBRG                             00000099
SPBRGH                            0000009A
SPEN                              00000007
SR0                               00000006
SR1                               00000007
SRCON                             00000185
SREN                              00000005
SSPADD                            00000093
SSPBUF                            00000013
SSPCON                            00000014
SSPCON2                           00000091
SSPEN                             00000005
SSPIE                             00000003
SSPIF                             00000003
SSPM0                             00000000
SSPM1                             00000001
SSPM2                             00000002
SSPM3                             00000003
SSPMSK                            00000093
SSPOV                             00000006
SSPSTAT                           00000094
START                             00000100
STATUS                            00000003
STRA                              00000000
STRB                              00000001
STRC                              00000002
STRD                              00000003
STRSYNC                           00000004
SWDTEN                            00000000
SYNC                              00000004
T0CS                              00000005
T0IE                              00000005
T0IF                              00000002
T0SE                              00000004
T1CKPS0                           00000004
T1CKPS1                           00000005
T1CON                             00000010
T1GINV                            00000007
T1GIV                             00000007
T1GSS                             00000001
T1INSYNC                          00000002
T1OSCEN                           00000003
T1SYNC                            00000002
T2CKPS0                           00000000
T2CKPS1                           00000001
T2CON                             00000012
MPASM 5.77                 LABORATORIO 2.ASM   8-13-2020  22:29:46         PAGE 13


SYMBOL TABLE
  LABEL                             VALUE 

TMR0                              00000001
TMR0IE                            00000005
TMR0IF                            00000002
TMR1                              0000000E
TMR1CS                            00000001
TMR1GE                            00000006
TMR1H                             0000000F
TMR1IE                            00000000
TMR1IF                            00000000
TMR1L                             0000000E
TMR1ON                            00000000
TMR2                              00000011
TMR2IE                            00000001
TMR2IF                            00000001
TMR2ON                            00000002
TOUTPS0                           00000003
TOUTPS1                           00000004
TOUTPS2                           00000005
TOUTPS3                           00000006
TRISA                             00000085
TRISA0                            00000000
TRISA1                            00000001
TRISA2                            00000002
TRISA3                            00000003
TRISA4                            00000004
TRISA5                            00000005
TRISA6                            00000006
TRISA7                            00000007
TRISB                             00000086
TRISB0                            00000000
TRISB1                            00000001
TRISB2                            00000002
TRISB3                            00000003
TRISB4                            00000004
TRISB5                            00000005
TRISB6                            00000006
TRISB7                            00000007
TRISC                             00000087
TRISC0                            00000000
TRISC1                            00000001
TRISC2                            00000002
TRISC3                            00000003
TRISC4                            00000004
TRISC5                            00000005
TRISC6                            00000006
TRISC7                            00000007
TRISD                             00000088
TRISD0                            00000000
TRISD1                            00000001
TRISD2                            00000002
TRISD3                            00000003
TRISD4                            00000004
TRISD5                            00000005
MPASM 5.77                 LABORATORIO 2.ASM   8-13-2020  22:29:46         PAGE 14


SYMBOL TABLE
  LABEL                             VALUE 

TRISD6                            00000006
TRISD7                            00000007
TRISE                             00000089
TRISE0                            00000000
TRISE1                            00000001
TRISE2                            00000002
TRISE3                            00000003
TRMT                              00000001
TUN0                              00000000
TUN1                              00000001
TUN2                              00000002
TUN3                              00000003
TUN4                              00000004
TX8_9                             00000006
TX9                               00000006
TX9D                              00000000
TXD8                              00000000
TXEN                              00000005
TXIE                              00000004
TXIF                              00000004
TXREG                             00000019
TXSTA                             00000098
UA                                00000001
ULPWUE                            00000005
ULPWUIE                           00000002
ULPWUIF                           00000002
VCFG0                             00000004
VCFG1                             00000005
VR0                               00000000
VR1                               00000001
VR2                               00000002
VR3                               00000003
VRCON                             00000097
VREN                              00000007
VROE                              00000006
VRR                               00000005
VRSS                              00000004
W                                 00000000
WCOL                              00000007
WDTCON                            00000105
WDTPS0                            00000001
WDTPS1                            00000002
WDTPS2                            00000003
WDTPS3                            00000004
WPUB                              00000095
WPUB0                             00000000
WPUB1                             00000001
WPUB2                             00000002
WPUB3                             00000003
WPUB4                             00000004
WPUB5                             00000005
WPUB6                             00000006
WPUB7                             00000007
MPASM 5.77                 LABORATORIO 2.ASM   8-13-2020  22:29:46         PAGE 15


SYMBOL TABLE
  LABEL                             VALUE 

WR                                00000001
WREN                              00000002
WRERR                             00000003
WUE                               00000001
YEFRY                             00000151
Z                                 00000002
_BOR21V                           00003EFF
_BOR40V                           00003FFF
_BOR4V_BOR21V                     00003EFF
_BOR4V_BOR40V                     00003FFF
_BOREN_NSLEEP                     00003EFF
_BOREN_OFF                        00003CFF
_BOREN_ON                         00003FFF
_BOREN_SBODEN                     00003DFF
_BOR_NSLEEP                       00003EFF
_BOR_OFF                          00003CFF
_BOR_ON                           00003FFF
_BOR_SBODEN                       00003DFF
_CONFIG1                          00002007
_CONFIG2                          00002008
_CPD_OFF                          00003FFF
_CPD_ON                           00003F7F
_CP_OFF                           00003FFF
_CP_ON                            00003FBF
_DEBUG_OFF                        00003FFF
_DEBUG_ON                         00001FFF
_DEVID1                           00002006
_EC_OSC                           00003FFB
_EXTRC                            00003FFF
_EXTRCIO                          00003FFE
_EXTRC_OSC_CLKOUT                 00003FFF
_EXTRC_OSC_NOCLKOUT               00003FFE
_FCMEN_OFF                        000037FF
_FCMEN_ON                         00003FFF
_FOSC_EC                          00003FFB
_FOSC_EXTRC_CLKOUT                00003FFF
_FOSC_EXTRC_NOCLKOUT              00003FFE
_FOSC_HS                          00003FFA
_FOSC_INTRC_CLKOUT                00003FFD
_FOSC_INTRC_NOCLKOUT              00003FFC
_FOSC_LP                          00003FF8
_FOSC_XT                          00003FF9
_HS_OSC                           00003FFA
_IDLOC0                           00002000
_IDLOC1                           00002001
_IDLOC2                           00002002
_IDLOC3                           00002003
_IESO_OFF                         00003BFF
_IESO_ON                          00003FFF
_INTOSC                           00003FFD
_INTOSCIO                         00003FFC
_INTRC_OSC_CLKOUT                 00003FFD
_INTRC_OSC_NOCLKOUT               00003FFC
MPASM 5.77                 LABORATORIO 2.ASM   8-13-2020  22:29:46         PAGE 16


SYMBOL TABLE
  LABEL                             VALUE 

_LP_OSC                           00003FF8
_LVP_OFF                          00002FFF
_LVP_ON                           00003FFF
_MAIN_PROG_015F                   0000015F
_MCLRE_OFF                        00003FDF
_MCLRE_ON                         00003FFF
_PWRTE_OFF                        00003FFF
_PWRTE_ON                         00003FEF
_WDTE_OFF                         00003FF7
_WDTE_ON                          00003FFF
_WDT_OFF                          00003FF7
_WDT_ON                           00003FFF
_WRT_1FOURTH                      00003BFF
_WRT_256                          00003DFF
_WRT_HALF                         000039FF
_WRT_OFF                          00003FFF
_XT_OSC                           00003FF9
__16F887                          00000001

Errors   :     0
Warnings :     5 reported,     0 suppressed
Messages :    10 reported,     0 suppressed

