MPLINK 5.08, LINKER
Linker Map File - Created Tue Oct 13 09:56:11 2020

                                 Section Info
                  Section       Type    Address   Location Size(Bytes)
                ---------  ---------  ---------  ---------  ---------
                 RES_VECT       code   0x000000    program   0x000002
                   .cinit    romdata   0x000001    program   0x000004
                 ISR_VECT       code   0x000004    program   0x000044
                MAIN_PROG       code   0x000100    program   0x00011a
.config_2007_BUILD/DEFAULT/PRODUCTION/LABORAT       code   0x002007    program   0x000002
.config_2008_BUILD/DEFAULT/PRODUCTION/LABORAT       code   0x002008    program   0x000002
                  GPR_VAR      udata   0x000020       data   0x00000d



                              Program Memory Usage 
                               Start         End      
                           ---------   ---------      
                            0x000000    0x000002      
                            0x000004    0x000025      
                            0x000100    0x00018c      
                            0x002007    0x002008      
            180 out of 8455 program addresses used, program memory utilization is 2%



                              Symbols - Sorted by Name
                     Name    Address   Location    Storage File                     
                ---------  ---------  ---------  --------- ---------                
               ADC_INICIO   0x00010a    program     static D:\UVG\Tercer año\Segundo semestre\Progra de micros\MPLAB\LABORATORIO 7.X\Laboratorio 7.asm
         CONFIG_INTERRUPT   0x00017e    program     static D:\UVG\Tercer año\Segundo semestre\Progra de micros\MPLAB\LABORATORIO 7.X\Laboratorio 7.asm
                CONFIG_IO   0x00014d    program     static D:\UVG\Tercer año\Segundo semestre\Progra de micros\MPLAB\LABORATORIO 7.X\Laboratorio 7.asm
              CONFIG_TMR0   0x000171    program     static D:\UVG\Tercer año\Segundo semestre\Progra de micros\MPLAB\LABORATORIO 7.X\Laboratorio 7.asm
                  DELAY_1   0x000182    program     static D:\UVG\Tercer año\Segundo semestre\Progra de micros\MPLAB\LABORATORIO 7.X\Laboratorio 7.asm
                DISPLAY_0   0x00013d    program     static D:\UVG\Tercer año\Segundo semestre\Progra de micros\MPLAB\LABORATORIO 7.X\Laboratorio 7.asm
                DISPLAY_1   0x000146    program     static D:\UVG\Tercer año\Segundo semestre\Progra de micros\MPLAB\LABORATORIO 7.X\Laboratorio 7.asm
                      ISR   0x000007    program     static D:\UVG\Tercer año\Segundo semestre\Progra de micros\MPLAB\LABORATORIO 7.X\Laboratorio 7.asm
                     LOOP   0x000106    program     static D:\UVG\Tercer año\Segundo semestre\Progra de micros\MPLAB\LABORATORIO 7.X\Laboratorio 7.asm
                      POP   0x00000f    program     static D:\UVG\Tercer año\Segundo semestre\Progra de micros\MPLAB\LABORATORIO 7.X\Laboratorio 7.asm
                     PUSH   0x000004    program     static D:\UVG\Tercer año\Segundo semestre\Progra de micros\MPLAB\LABORATORIO 7.X\Laboratorio 7.asm
               READ_VOLTS   0x000111    program     static D:\UVG\Tercer año\Segundo semestre\Progra de micros\MPLAB\LABORATORIO 7.X\Laboratorio 7.asm
                      R_2   0x000118    program     static D:\UVG\Tercer año\Segundo semestre\Progra de micros\MPLAB\LABORATORIO 7.X\Laboratorio 7.asm
                      R_3   0x00011f    program     static D:\UVG\Tercer año\Segundo semestre\Progra de micros\MPLAB\LABORATORIO 7.X\Laboratorio 7.asm
                      R_4   0x000126    program     static D:\UVG\Tercer año\Segundo semestre\Progra de micros\MPLAB\LABORATORIO 7.X\Laboratorio 7.asm
                      R_5   0x00012d    program     static D:\UVG\Tercer año\Segundo semestre\Progra de micros\MPLAB\LABORATORIO 7.X\Laboratorio 7.asm
                      R_6   0x000134    program     static D:\UVG\Tercer año\Segundo semestre\Progra de micros\MPLAB\LABORATORIO 7.X\Laboratorio 7.asm
                      R_7   0x00013b    program     static D:\UVG\Tercer año\Segundo semestre\Progra de micros\MPLAB\LABORATORIO 7.X\Laboratorio 7.asm
                    START   0x000100    program     static D:\UVG\Tercer año\Segundo semestre\Progra de micros\MPLAB\LABORATORIO 7.X\Laboratorio 7.asm
                 TABLA_7S   0x000014    program     static D:\UVG\Tercer año\Segundo semestre\Progra de micros\MPLAB\LABORATORIO 7.X\Laboratorio 7.asm
          _MAIN_PROG_010D   0x00010d    program     static D:\UVG\Tercer año\Segundo semestre\Progra de micros\MPLAB\LABORATORIO 7.X\Laboratorio 7.asm
                    ADC_V   0x000026       data     static D:\UVG\Tercer año\Segundo semestre\Progra de micros\MPLAB\LABORATORIO 7.X\Laboratorio 7.asm
                    CONT1   0x000020       data     static D:\UVG\Tercer año\Segundo semestre\Progra de micros\MPLAB\LABORATORIO 7.X\Laboratorio 7.asm
                   CONT1S   0x000024       data     static D:\UVG\Tercer año\Segundo semestre\Progra de micros\MPLAB\LABORATORIO 7.X\Laboratorio 7.asm
                    CONTA   0x000021       data     static D:\UVG\Tercer año\Segundo semestre\Progra de micros\MPLAB\LABORATORIO 7.X\Laboratorio 7.asm
                 CONTADOR   0x000025       data     static D:\UVG\Tercer año\Segundo semestre\Progra de micros\MPLAB\LABORATORIO 7.X\Laboratorio 7.asm
                    CONTB   0x000022       data     static D:\UVG\Tercer año\Segundo semestre\Progra de micros\MPLAB\LABORATORIO 7.X\Laboratorio 7.asm
                   CONTOR   0x000023       data     static D:\UVG\Tercer año\Segundo semestre\Progra de micros\MPLAB\LABORATORIO 7.X\Laboratorio 7.asm
              STATUS_TEMP   0x00002a       data     static D:\UVG\Tercer año\Segundo semestre\Progra de micros\MPLAB\LABORATORIO 7.X\Laboratorio 7.asm
                    TEMP1   0x00002b       data     static D:\UVG\Tercer año\Segundo semestre\Progra de micros\MPLAB\LABORATORIO 7.X\Laboratorio 7.asm
                    TEMP2   0x00002c       data     static D:\UVG\Tercer año\Segundo semestre\Progra de micros\MPLAB\LABORATORIO 7.X\Laboratorio 7.asm
                VALOR_ADC   0x000028       data     static D:\UVG\Tercer año\Segundo semestre\Progra de micros\MPLAB\LABORATORIO 7.X\Laboratorio 7.asm
                   V_VOLT   0x000027       data     static D:\UVG\Tercer año\Segundo semestre\Progra de micros\MPLAB\LABORATORIO 7.X\Laboratorio 7.asm
                   W_TEMP   0x000029       data     static D:\UVG\Tercer año\Segundo semestre\Progra de micros\MPLAB\LABORATORIO 7.X\Laboratorio 7.asm



                              Symbols - Sorted by Address
                     Name    Address   Location    Storage File                     
                ---------  ---------  ---------  --------- ---------                
                     PUSH   0x000004    program     static D:\UVG\Tercer año\Segundo semestre\Progra de micros\MPLAB\LABORATORIO 7.X\Laboratorio 7.asm
                      ISR   0x000007    program     static D:\UVG\Tercer año\Segundo semestre\Progra de micros\MPLAB\LABORATORIO 7.X\Laboratorio 7.asm
                      POP   0x00000f    program     static D:\UVG\Tercer año\Segundo semestre\Progra de micros\MPLAB\LABORATORIO 7.X\Laboratorio 7.asm
                 TABLA_7S   0x000014    program     static D:\UVG\Tercer año\Segundo semestre\Progra de micros\MPLAB\LABORATORIO 7.X\Laboratorio 7.asm
                    START   0x000100    program     static D:\UVG\Tercer año\Segundo semestre\Progra de micros\MPLAB\LABORATORIO 7.X\Laboratorio 7.asm
                     LOOP   0x000106    program     static D:\UVG\Tercer año\Segundo semestre\Progra de micros\MPLAB\LABORATORIO 7.X\Laboratorio 7.asm
               ADC_INICIO   0x00010a    program     static D:\UVG\Tercer año\Segundo semestre\Progra de micros\MPLAB\LABORATORIO 7.X\Laboratorio 7.asm
          _MAIN_PROG_010D   0x00010d    program     static D:\UVG\Tercer año\Segundo semestre\Progra de micros\MPLAB\LABORATORIO 7.X\Laboratorio 7.asm
               READ_VOLTS   0x000111    program     static D:\UVG\Tercer año\Segundo semestre\Progra de micros\MPLAB\LABORATORIO 7.X\Laboratorio 7.asm
                      R_2   0x000118    program     static D:\UVG\Tercer año\Segundo semestre\Progra de micros\MPLAB\LABORATORIO 7.X\Laboratorio 7.asm
                      R_3   0x00011f    program     static D:\UVG\Tercer año\Segundo semestre\Progra de micros\MPLAB\LABORATORIO 7.X\Laboratorio 7.asm
                      R_4   0x000126    program     static D:\UVG\Tercer año\Segundo semestre\Progra de micros\MPLAB\LABORATORIO 7.X\Laboratorio 7.asm
                      R_5   0x00012d    program     static D:\UVG\Tercer año\Segundo semestre\Progra de micros\MPLAB\LABORATORIO 7.X\Laboratorio 7.asm
                      R_6   0x000134    program     static D:\UVG\Tercer año\Segundo semestre\Progra de micros\MPLAB\LABORATORIO 7.X\Laboratorio 7.asm
                      R_7   0x00013b    program     static D:\UVG\Tercer año\Segundo semestre\Progra de micros\MPLAB\LABORATORIO 7.X\Laboratorio 7.asm
                DISPLAY_0   0x00013d    program     static D:\UVG\Tercer año\Segundo semestre\Progra de micros\MPLAB\LABORATORIO 7.X\Laboratorio 7.asm
                DISPLAY_1   0x000146    program     static D:\UVG\Tercer año\Segundo semestre\Progra de micros\MPLAB\LABORATORIO 7.X\Laboratorio 7.asm
                CONFIG_IO   0x00014d    program     static D:\UVG\Tercer año\Segundo semestre\Progra de micros\MPLAB\LABORATORIO 7.X\Laboratorio 7.asm
              CONFIG_TMR0   0x000171    program     static D:\UVG\Tercer año\Segundo semestre\Progra de micros\MPLAB\LABORATORIO 7.X\Laboratorio 7.asm
         CONFIG_INTERRUPT   0x00017e    program     static D:\UVG\Tercer año\Segundo semestre\Progra de micros\MPLAB\LABORATORIO 7.X\Laboratorio 7.asm
                  DELAY_1   0x000182    program     static D:\UVG\Tercer año\Segundo semestre\Progra de micros\MPLAB\LABORATORIO 7.X\Laboratorio 7.asm
                    CONT1   0x000020       data     static D:\UVG\Tercer año\Segundo semestre\Progra de micros\MPLAB\LABORATORIO 7.X\Laboratorio 7.asm
                    CONTA   0x000021       data     static D:\UVG\Tercer año\Segundo semestre\Progra de micros\MPLAB\LABORATORIO 7.X\Laboratorio 7.asm
                    CONTB   0x000022       data     static D:\UVG\Tercer año\Segundo semestre\Progra de micros\MPLAB\LABORATORIO 7.X\Laboratorio 7.asm
                   CONTOR   0x000023       data     static D:\UVG\Tercer año\Segundo semestre\Progra de micros\MPLAB\LABORATORIO 7.X\Laboratorio 7.asm
                   CONT1S   0x000024       data     static D:\UVG\Tercer año\Segundo semestre\Progra de micros\MPLAB\LABORATORIO 7.X\Laboratorio 7.asm
                 CONTADOR   0x000025       data     static D:\UVG\Tercer año\Segundo semestre\Progra de micros\MPLAB\LABORATORIO 7.X\Laboratorio 7.asm
                    ADC_V   0x000026       data     static D:\UVG\Tercer año\Segundo semestre\Progra de micros\MPLAB\LABORATORIO 7.X\Laboratorio 7.asm
                   V_VOLT   0x000027       data     static D:\UVG\Tercer año\Segundo semestre\Progra de micros\MPLAB\LABORATORIO 7.X\Laboratorio 7.asm
                VALOR_ADC   0x000028       data     static D:\UVG\Tercer año\Segundo semestre\Progra de micros\MPLAB\LABORATORIO 7.X\Laboratorio 7.asm
                   W_TEMP   0x000029       data     static D:\UVG\Tercer año\Segundo semestre\Progra de micros\MPLAB\LABORATORIO 7.X\Laboratorio 7.asm
              STATUS_TEMP   0x00002a       data     static D:\UVG\Tercer año\Segundo semestre\Progra de micros\MPLAB\LABORATORIO 7.X\Laboratorio 7.asm
                    TEMP1   0x00002b       data     static D:\UVG\Tercer año\Segundo semestre\Progra de micros\MPLAB\LABORATORIO 7.X\Laboratorio 7.asm
                    TEMP2   0x00002c       data     static D:\UVG\Tercer año\Segundo semestre\Progra de micros\MPLAB\LABORATORIO 7.X\Laboratorio 7.asm


